; Function Attrs: nounwind uwtable
define ptr @Abc_NtkBottommost_rec(ptr noundef %0, ptr noundef captures(none) %1, i32 noundef %2) local_unnamed_addr #0 {
  %4 = getelementptr inbounds nuw i8, ptr %1, i64 64
  %5 = load ptr, ptr %4, align 8
  %.not = icmp eq ptr %5, null
  br i1 %.not, label %6, label %54

6:                                                ; preds = %3
  %.val = load ptr, ptr %1, align 8
  %7 = getelementptr i8, ptr %1, i64 32
  %.val15 = load ptr, ptr %7, align 8
  %8 = getelementptr i8, ptr %.val, i64 32
  %.val.val = load ptr, ptr %8, align 8
  %.val15.val = load i32, ptr %.val15, align 4
  %9 = getelementptr i8, ptr %.val.val, i64 8
  %.val.val.val = load ptr, ptr %9, align 8
  %10 = sext i32 %.val15.val to i64
  %11 = getelementptr inbounds ptr, ptr %.val.val.val, i64 %10
  %12 = load ptr, ptr %11, align 8
  %13 = tail call ptr @Abc_NtkBottommost_rec(ptr noundef %0, ptr noundef %12, i32 noundef %2)
  %.val16 = load ptr, ptr %1, align 8
  %.val17 = load ptr, ptr %7, align 8
  %14 = getelementptr i8, ptr %.val16, i64 32
  %.val16.val = load ptr, ptr %14, align 8
  %15 = getelementptr i8, ptr %.val17, i64 4
  %.val17.val = load i32, ptr %15, align 4
  %16 = getelementptr i8, ptr %.val16.val, i64 8
  %.val16.val.val = load ptr, ptr %16, align 8
  %17 = sext i32 %.val17.val to i64
  %18 = getelementptr inbounds ptr, ptr %.val16.val.val, i64 %17
  %19 = load ptr, ptr %18, align 8
  %20 = tail call ptr @Abc_NtkBottommost_rec(ptr noundef %0, ptr noundef %19, i32 noundef %2)
  %21 = getelementptr inbounds nuw i8, ptr %1, i64 20
  %22 = load i32, ptr %21, align 4
  %23 = lshr i32 %22, 12
  %24 = icmp ugt i32 %23, %2
  br i1 %24, label %54, label %25

25:                                               ; preds = %6
  %26 = getelementptr inbounds nuw i8, ptr %0, i64 256
  %27 = load ptr, ptr %26, align 8
  %.val.i = load ptr, ptr %1, align 8
  %.val2.i = load ptr, ptr %7, align 8
  %28 = getelementptr i8, ptr %.val.i, i64 32
  %.val.val.i = load ptr, ptr %28, align 8
  %.val2.val.i = load i32, ptr %.val2.i, align 4
  %29 = getelementptr i8, ptr %.val.val.i, i64 8
  %.val.val.val.i = load ptr, ptr %29, align 8
  %30 = sext i32 %.val2.val.i to i64
  %31 = getelementptr inbounds ptr, ptr %.val.val.val.i, i64 %30
  %32 = load ptr, ptr %31, align 8
  %33 = getelementptr inbounds nuw i8, ptr %32, i64 64
  %34 = load ptr, ptr %33, align 8
  %35 = lshr i32 %22, 10
  %36 = and i32 %35, 1
  %37 = ptrtoint ptr %34 to i64
  %38 = zext nneg i32 %36 to i64
  %39 = xor i64 %37, %38
  %40 = inttoptr i64 %39 to ptr
  %41 = getelementptr i8, ptr %.val2.i, i64 4
  %.val2.val.i21 = load i32, ptr %41, align 4
  %42 = sext i32 %.val2.val.i21 to i64
  %43 = getelementptr inbounds ptr, ptr %.val.val.val.i, i64 %42
  %44 = load ptr, ptr %43, align 8
  %45 = getelementptr inbounds nuw i8, ptr %44, i64 64
  %46 = load ptr, ptr %45, align 8
  %47 = lshr i32 %22, 11
  %48 = and i32 %47, 1
  %49 = ptrtoint ptr %46 to i64
  %50 = zext nneg i32 %48 to i64
  %51 = xor i64 %49, %50
  %52 = inttoptr i64 %51 to ptr
  %53 = tail call ptr @Abc_AigAnd(ptr noundef %27, ptr noundef %40, ptr noundef %52) #11
  store ptr %53, ptr %4, align 8
  br label %54

54:                                               ; preds = %6, %3, %25
  %.0 = phi ptr [ %53, %25 ], [ %5, %3 ], [ null, %6 ]
  ret ptr %.0
}